; ModuleID = '15/310.c'
source_filename = "15/310.c"
target datalayout = "e-m:e-p270:32:32-p271:32:32-p272:64:64-i64:64-f80:128-n8:16:32:64-S128"
target triple = "x86_64-pc-linux-gnu"

@.str = private unnamed_addr constant [4 x i8] c"%d\0A\00", align 1
@.str.1 = private unnamed_addr constant [4 x i8] c"%d \00", align 1
@.str.2 = private unnamed_addr constant [3 x i8] c"%d\00", align 1

; Function Attrs: noinline nounwind uwtable
define dso_local i32 @main() #0 {
  %1 = alloca i32, align 4
  %2 = alloca i32, align 4
  %3 = alloca i32, align 4
  %4 = alloca i32, align 4
  %5 = alloca i32, align 4
  %6 = alloca [1000 x [1000 x i32]], align 16
  store i32 0, i32* %1, align 4
  store i32 0, i32* %5, align 4
  %7 = call i32 (i8*, ...) @__isoc99_scanf(i8* getelementptr inbounds ([4 x i8], [4 x i8]* @.str, i64 0, i64 0), i32* %2)
  store i32 0, i32* %3, align 4
  br label %8

8:                                                ; preds = %39, %0
  %9 = load i32, i32* %3, align 4
  %10 = load i32, i32* %2, align 4
  %11 = sub nsw i32 %10, 1
  %12 = icmp slt i32 %9, %11
  br i1 %12, label %13, label %42

13:                                               ; preds = %8
  store i32 0, i32* %4, align 4
  br label %14

14:                                               ; preds = %27, %13
  %15 = load i32, i32* %4, align 4
  %16 = load i32, i32* %2, align 4
  %17 = sub nsw i32 %16, 1
  %18 = icmp slt i32 %15, %17
  br i1 %18, label %19, label %30

19:                                               ; preds = %14
  %20 = load i32, i32* %3, align 4
  %21 = sext i32 %20 to i64
  %22 = getelementptr inbounds [1000 x [1000 x i32]], [1000 x [1000 x i32]]* %6, i64 0, i64 %21
  %23 = load i32, i32* %4, align 4
  %24 = sext i32 %23 to i64
  %25 = getelementptr inbounds [1000 x i32], [1000 x i32]* %22, i64 0, i64 %24
  %26 = call i32 (i8*, ...) @__isoc99_scanf(i8* getelementptr inbounds ([4 x i8], [4 x i8]* @.str.1, i64 0, i64 0), i32* %25)
  br label %27

27:                                               ; preds = %19
  %28 = load i32, i32* %4, align 4
  %29 = add nsw i32 %28, 1
  store i32 %29, i32* %4, align 4
  br label %14

30:                                               ; preds = %14
  %31 = load i32, i32* %3, align 4
  %32 = sext i32 %31 to i64
  %33 = getelementptr inbounds [1000 x [1000 x i32]], [1000 x [1000 x i32]]* %6, i64 0, i64 %32
  %34 = load i32, i32* %2, align 4
  %35 = sub nsw i32 %34, 1
  %36 = sext i32 %35 to i64
  %37 = getelementptr inbounds [1000 x i32], [1000 x i32]* %33, i64 0, i64 %36
  %38 = call i32 (i8*, ...) @__isoc99_scanf(i8* getelementptr inbounds ([4 x i8], [4 x i8]* @.str, i64 0, i64 0), i32* %37)
  br label %39

39:                                               ; preds = %30
  %40 = load i32, i32* %3, align 4
  %41 = add nsw i32 %40, 1
  store i32 %41, i32* %3, align 4
  br label %8

42:                                               ; preds = %8
  store i32 0, i32* %4, align 4
  br label %43

43:                                               ; preds = %57, %42
  %44 = load i32, i32* %4, align 4
  %45 = load i32, i32* %2, align 4
  %46 = sub nsw i32 %45, 1
  %47 = icmp slt i32 %44, %46
  br i1 %47, label %48, label %60

48:                                               ; preds = %43
  %49 = load i32, i32* %2, align 4
  %50 = sub nsw i32 %49, 1
  %51 = sext i32 %50 to i64
  %52 = getelementptr inbounds [1000 x [1000 x i32]], [1000 x [1000 x i32]]* %6, i64 0, i64 %51
  %53 = load i32, i32* %4, align 4
  %54 = sext i32 %53 to i64
  %55 = getelementptr inbounds [1000 x i32], [1000 x i32]* %52, i64 0, i64 %54
  %56 = call i32 (i8*, ...) @__isoc99_scanf(i8* getelementptr inbounds ([4 x i8], [4 x i8]* @.str.1, i64 0, i64 0), i32* %55)
  br label %57

57:                                               ; preds = %48
  %58 = load i32, i32* %4, align 4
  %59 = add nsw i32 %58, 1
  store i32 %59, i32* %4, align 4
  br label %43

60:                                               ; preds = %43
  %61 = load i32, i32* %2, align 4
  %62 = sub nsw i32 %61, 1
  %63 = sext i32 %62 to i64
  %64 = getelementptr inbounds [1000 x [1000 x i32]], [1000 x [1000 x i32]]* %6, i64 0, i64 %63
  %65 = load i32, i32* %2, align 4
  %66 = sub nsw i32 %65, 1
  %67 = sext i32 %66 to i64
  %68 = getelementptr inbounds [1000 x i32], [1000 x i32]* %64, i64 0, i64 %67
  %69 = call i32 (i8*, ...) @__isoc99_scanf(i8* getelementptr inbounds ([3 x i8], [3 x i8]* @.str.2, i64 0, i64 0), i32* %68)
  store i32 2, i32* %3, align 4
  br label %70

70:                                               ; preds = %98, %60
  %71 = load i32, i32* %3, align 4
  %72 = load i32, i32* %2, align 4
  %73 = sub nsw i32 %72, 2
  %74 = icmp slt i32 %71, %73
  br i1 %74, label %75, label %101

75:                                               ; preds = %70
  store i32 2, i32* %4, align 4
  br label %76

76:                                               ; preds = %94, %75
  %77 = load i32, i32* %4, align 4
  %78 = load i32, i32* %2, align 4
  %79 = sub nsw i32 %78, 2
  %80 = icmp slt i32 %77, %79
  br i1 %80, label %81, label %97

81:                                               ; preds = %76
  %82 = load i32, i32* %3, align 4
  %83 = sext i32 %82 to i64
  %84 = getelementptr inbounds [1000 x [1000 x i32]], [1000 x [1000 x i32]]* %6, i64 0, i64 %83
  %85 = load i32, i32* %4, align 4
  %86 = sext i32 %85 to i64
  %87 = getelementptr inbounds [1000 x i32], [1000 x i32]* %84, i64 0, i64 %86
  %88 = load i32, i32* %87, align 4
  %89 = icmp eq i32 %88, 255
  br i1 %89, label %90, label %93

90:                                               ; preds = %81
  %91 = load i32, i32* %5, align 4
  %92 = add nsw i32 %91, 1
  store i32 %92, i32* %5, align 4
  br label %93

93:                                               ; preds = %90, %81
  br label %94

94:                                               ; preds = %93
  %95 = load i32, i32* %4, align 4
  %96 = add nsw i32 %95, 1
  store i32 %96, i32* %4, align 4
  br label %76

97:                                               ; preds = %76
  br label %98

98:                                               ; preds = %97
  %99 = load i32, i32* %3, align 4
  %100 = add nsw i32 %99, 1
  store i32 %100, i32* %3, align 4
  br label %70

101:                                              ; preds = %70
  %102 = load i32, i32* %5, align 4
  %103 = call i32 (i8*, ...) @printf(i8* getelementptr inbounds ([3 x i8], [3 x i8]* @.str.2, i64 0, i64 0), i32 %102)
  %104 = load i32, i32* %1, align 4
  ret i32 %104
}

declare dso_local i32 @__isoc99_scanf(i8*, ...) #1

declare dso_local i32 @printf(i8*, ...) #1


!llvm.module.flags = !{!0}
!llvm.ident = !{!1}

!0 = !{i32 1, !"wchar_size", i32 4}
!1 = !{!"clang version 10.0.0-4ubuntu1 "}
